; Function Attrs: mustprogress uwtable
define void @_ZN7rocksdb23CompressionContextCacheC2Ev(ptr noundef nonnull writeonly align 8 captures(none) dereferenceable(8) %0) unnamed_addr #0 align 2 personality ptr @__gxx_personality_v0 {
  %2 = tail call noalias noundef nonnull dereferenceable(16) ptr @_Znwm(i64 noundef 16) #13
  tail call void @llvm.memset.p0.i64(ptr noundef nonnull align 16 dereferenceable(16) %2, i8 0, i64 16, i1 false)
  invoke void @_ZN7rocksdb14CoreLocalArrayINS_17compression_cache14ZSTDCachedDataEEC2Ev(ptr noundef nonnull align 8 dereferenceable(16) %2)
          to label %_ZN7rocksdb23CompressionContextCache3RepC2Ev.exit unwind label %3

_ZN7rocksdb23CompressionContextCache3RepC2Ev.exit: ; preds = %1
  store ptr %2, ptr %0, align 8, !tbaa !4
  ret void

3:                                                ; preds = %1
  %4 = landingpad { ptr, i32 }
          cleanup
  tail call void @_ZdlPvm(ptr noundef nonnull %2, i64 noundef 16) #14
  resume { ptr, i32 } %4
}